target datalayout = "e-m:e-p270:32:32-p271:32:32-p272:64:64-i64:64-i128:128-f80:128-n8:16:32:64-S128"
target triple = "x86_64-pc-linux-gnu"

@Curl_cmalloc = dso_local global ptr @malloc, align 8
@Curl_cfree = dso_local global ptr @free, align 8
@Curl_crealloc = dso_local global ptr @realloc, align 8
@Curl_cstrdup = dso_local global ptr @strdup, align 8
@Curl_ccalloc = dso_local global ptr @calloc, align 8
@initialized = internal global i32 0, align 4
@easy_init_flags = internal global i64 0, align 8

; Function Attrs: nounwind uwtable
define internal i32 @global_init(i64 noundef %0, i1 noundef zeroext %1) #4 {
  %3 = alloca i32, align 4
  %4 = alloca i64, align 8
  %5 = alloca i8, align 1
  store i64 %0, ptr %4, align 8, !tbaa !4
  %6 = zext i1 %1 to i8
  store i8 %6, ptr %5, align 1, !tbaa !10
  %7 = load i32, ptr @initialized, align 4, !tbaa !8
  %8 = add i32 %7, 1
  store i32 %8, ptr @initialized, align 4, !tbaa !8
  %9 = icmp ne i32 %7, 0
  br i1 %9, label %10, label %11

10:                                               ; preds = %2
  store i32 0, ptr %3, align 4
  br label %32

11:                                               ; preds = %2
  %12 = load i8, ptr %5, align 1, !tbaa !10, !range !12, !noundef !13
  %13 = trunc i8 %12 to i1
  br i1 %13, label %14, label %15

14:                                               ; preds = %11
  store ptr @malloc, ptr @Curl_cmalloc, align 8, !tbaa !14
  store ptr @free, ptr @Curl_cfree, align 8, !tbaa !14
  store ptr @realloc, ptr @Curl_crealloc, align 8, !tbaa !14
  store ptr @strdup, ptr @Curl_cstrdup, align 8, !tbaa !14
  store ptr @calloc, ptr @Curl_ccalloc, align 8, !tbaa !14
  br label %15

15:                                               ; preds = %14, %11
  %16 = call i32 @Curl_trc_init()
  %17 = icmp ne i32 %16, 0
  br i1 %17, label %18, label %21

18:                                               ; preds = %15
  br label %19

19:                                               ; preds = %18
  br label %20

20:                                               ; preds = %19
  br label %29

21:                                               ; preds = %15
  %22 = call i32 @Curl_ssl_init()
  %23 = icmp ne i32 %22, 0
  br i1 %23, label %27, label %24

24:                                               ; preds = %21
  br label %25

25:                                               ; preds = %24
  br label %26

26:                                               ; preds = %25
  br label %29

27:                                               ; preds = %21
  %28 = load i64, ptr %4, align 8, !tbaa !4
  store i64 %28, ptr @easy_init_flags, align 8, !tbaa !4
  store i32 0, ptr %3, align 4
  br label %32

29:                                               ; preds = %26, %20
  %30 = load i32, ptr @initialized, align 4, !tbaa !8
  %31 = add i32 %30, -1
  store i32 %31, ptr @initialized, align 4, !tbaa !8
  store i32 2, ptr %3, align 4
  br label %32

32:                                               ; preds = %29, %27, %10
  %33 = load i32, ptr %3, align 4
  ret i32 %33
}

; Function Attrs: nounwind uwtable
define dso_local i32 @curl_global_init(i64 noundef %0) #4 {
  %2 = alloca i64, align 8
  %3 = alloca i32, align 4
  store i64 %0, ptr %2, align 8, !tbaa !4
  call void @llvm.lifetime.start.p0(i64 4, ptr %3) #10
  %4 = load i64, ptr %2, align 8, !tbaa !4
  %5 = call i32 @global_init(i64 noundef %4, i1 noundef zeroext true)
  store i32 %5, ptr %3, align 4, !tbaa !8
  %6 = load i32, ptr %3, align 4, !tbaa !8
  call void @llvm.lifetime.end.p0(i64 4, ptr %3) #10
  ret i32 %6
}