; Function Attrs: nounwind uwtable
define dso_local range(i32 0, 3) i32 @curl_global_init(i64 noundef %0) local_unnamed_addr #5 {
  %2 = load i32, ptr @initialized, align 4, !tbaa !4
  %3 = add i32 %2, 1
  store i32 %3, ptr @initialized, align 4, !tbaa !4
  %.not.i = icmp eq i32 %2, 0
  br i1 %.not.i, label %4, label %global_init.exit

4:                                                ; preds = %1
  store ptr @malloc, ptr @Curl_cmalloc, align 8, !tbaa !8
  store ptr @free, ptr @Curl_cfree, align 8, !tbaa !8
  store ptr @realloc, ptr @Curl_crealloc, align 8, !tbaa !8
  store ptr @strdup, ptr @Curl_cstrdup, align 8, !tbaa !8
  store ptr @calloc, ptr @Curl_ccalloc, align 8, !tbaa !8
  %5 = tail call i32 @Curl_trc_init() #12
  %.not3.i = icmp eq i32 %5, 0
  br i1 %.not3.i, label %6, label %8

6:                                                ; preds = %4
  %7 = tail call i32 @Curl_ssl_init() #12
  %.not4.i = icmp eq i32 %7, 0
  br i1 %.not4.i, label %8, label %global_init.exit

8:                                                ; preds = %6, %4
  %9 = load i32, ptr @initialized, align 4, !tbaa !4
  %10 = add i32 %9, -1
  store i32 %10, ptr @initialized, align 4, !tbaa !4
  br label %global_init.exit

global_init.exit:                                 ; preds = %1, %6, %8
  %.0.i = phi i32 [ 2, %8 ], [ 0, %1 ], [ 0, %6 ]
  ret i32 %.0.i
}